Certificate:
    Data:
        Version: 3 (0x2)
        Serial Number: 1 (0x1)
        Signature Algorithm: sha256WithRSAEncryption
        Issuer: C=PL, ST=mazowieckie, L=Warszawa, O=PW, OU=WEiTI, CN=CA Aleksadner Drwal
        Validity
            Not Before: Apr 24 15:21:40 2024 GMT
            Not After : Apr 24 15:21:40 2025 GMT
        Subject: C=PL, ST=mazowieckie, O=PW, CN=SERVER Aleksander Drwal, OU=WEiTI
        Subject Public Key Info:
            Public Key Algorithm: rsaEncryption
                RSA Public-Key: (2048 bit)
                Modulus:
                    00:b6:19:6a:7b:4b:0b:6c:a3:66:67:4f:ae:4b:1e:
                    7d:92:1a:89:81:4f:eb:d9:67:08:ff:e6:37:03:2f:
                    f9:76:0f:11:61:b8:23:a0:fd:2c:08:9c:d6:2c:d8:
                    af:3f:ef:09:e2:a2:9b:63:fd:9a:cd:ba:8c:31:ee:
                    bf:96:a0:5a:ab:d4:11:25:5b:ae:f4:55:24:b3:7d:
                    98:ce:a3:c0:de:67:99:53:1c:50:6a:26:02:25:98:
                    68:58:d2:23:50:71:35:b0:31:0a:2c:a1:d9:db:9f:
                    df:e5:e9:9d:3a:9f:04:d2:99:26:82:66:76:f3:7a:
                    84:2c:ea:32:34:4f:a1:d2:bb:1e:92:3f:99:f5:71:
                    55:57:81:11:80:e9:70:b3:04:74:e2:58:59:f9:e6:
                    7b:3a:d0:8f:79:b3:73:2e:50:4a:96:24:1a:75:5f:
                    93:52:a1:b9:67:10:17:48:1e:60:93:b4:08:fd:b9:
                    ed:12:9c:71:9d:00:8c:01:90:90:ff:27:f0:ae:af:
                    f2:e0:c0:b1:84:86:fb:8c:ca:ff:71:54:fd:1d:eb:
                    07:49:6b:3b:05:76:24:f2:64:94:e1:71:48:29:81:
                    85:a1:ac:ba:3a:78:d7:8c:ae:02:84:69:e1:82:8e:
                    b9:ed:88:14:0c:92:4b:6e:ba:1d:c0:06:6d:e5:97:
                    2a:ad
                Exponent: 65537 (0x10001)
        X509v3 extensions:
            X509v3 Basic Constraints: 
                CA:FALSE
            Netscape Comment: 
                Testowe CA z laboratorium BSS
            X509v3 Subject Key Identifier: 
                92:44:06:E4:B0:4E:0E:52:D1:7E:1B:F2:BA:92:C1:8C:8A:4A:46:8C
            X509v3 Authority Key Identifier: 
                keyid:A6:8A:48:DF:1F:E7:5F:3E:EA:AA:4A:09:5E:2E:D2:4A:16:9F:94:95
                DirName:/C=PL/ST=mazowieckie/L=Warszawa/O=PW/OU=WEiTI/CN=CA Aleksadner Drwal
                serial:04:43:D8:F1:AF:A7:90:87:1B:82:BA:2C:C6:8C:31:F8:2D:9E:7B:98

    Signature Algorithm: sha256WithRSAEncryption
         77:5f:ef:7e:76:91:8c:0b:6c:91:bd:0c:4f:5c:f7:5c:9b:f7:
         56:62:c9:3a:9b:7c:6f:1c:73:2c:ed:74:41:8d:f5:2b:ab:9b:
         90:e6:57:ed:f6:84:5c:41:83:c7:a9:fa:8b:21:92:a5:6c:75:
         db:a0:ee:e5:cd:ea:ea:bd:9b:2d:01:27:fe:51:88:d4:fc:55:
         bf:c5:80:88:26:9e:89:5b:8f:43:a5:6e:76:dc:1f:6c:60:ea:
         f2:c4:de:ca:ec:66:88:5e:4a:c7:83:e2:9e:0c:a1:be:1e:c2:
         21:6e:a4:04:4c:85:dc:52:c4:e7:bc:f3:7b:47:cb:5f:5e:3d:
         ee:cc:6d:95:04:6a:d5:3f:4f:a1:bf:60:83:58:e9:2d:42:7e:
         1a:83:e3:5d:08:89:17:6d:a9:ac:e0:bd:48:4a:c1:0f:a2:ec:
         78:c0:cd:1f:eb:5d:ae:ed:c2:cf:64:18:95:89:e6:f7:10:04:
         57:25:aa:71:f4:c2:a2:93:60:ce:64:52:81:34:0b:63:77:8a:
         13:d2:c8:da:ac:0e:e6:0b:28:82:7b:dc:15:da:23:b1:d4:60:
         be:28:54:6e:ec:4e:cc:f1:98:2c:fb:75:87:11:65:fb:9f:62:
         ef:79:a3:73:c0:82:fc:c8:e5:b3:86:65:51:29:72:10:2c:10:
         b1:f2:49:76:91:83:ab:3e:50:ce:f4:8d:f4:50:27:57:9d:fb:
         f5:d8:85:de:61:5f:94:3a:24:00:e7:2e:a6:7d:eb:f7:54:03:
         40:bb:29:52:80:43:52:4a:26:80:2f:18:c4:2f:4b:6e:9a:c9:
         c5:78:68:bb:27:d1:c1:15:42:e0:19:69:c0:13:aa:2a:47:7c:
         f8:18:5f:27:49:e6:59:f3:b9:2e:68:8c:64:41:98:16:2e:a2:
         c2:f2:5d:73:4b:b6:c2:59:af:f5:d2:90:2c:29:d0:8a:45:8a:
         0a:52:97:59:51:2f:f3:dd:ff:70:77:bc:e8:20:7b:b3:e5:66:
         6e:d6:77:ec:e8:60:aa:01:c5:51:2a:90:57:e8:00:ce:fc:17:
         ac:93:e0:b1:4b:ca:9b:b6:22:18:e9:81:29:a4:66:66:9a:9a:
         ef:12:cf:a8:eb:f9:c2:e8:6e:54:e2:89:6b:e9:74:a3:60:26:
         f3:5b:0b:90:f9:91:24:ee:f1:6c:77:06:74:cd:0d:38:36:e6:
         67:2d:7d:80:92:e9:8c:ee:74:ee:f2:19:6e:d1:f9:bd:be:f9:
         e8:56:3a:63:97:85:b9:db:22:98:3f:6a:bb:aa:93:45:70:49:
         dc:a7:06:d8:5b:27:b6:1f:2d:1e:c9:35:5e:6b:8e:eb:f9:0a:
         30:f1:03:40:66:3b:b1:1f
-----BEGIN CERTIFICATE-----
MIIFXTCCA0WgAwIBAgIBATANBgkqhkiG9w0BAQsFADBxMQswCQYDVQQGEwJQTDEU
MBIGA1UECBMLbWF6b3dpZWNraWUxETAPBgNVBAcTCFdhcnN6YXdhMQswCQYDVQQK
EwJQVzEOMAwGA1UECxMFV0VpVEkxHDAaBgNVBAMTE0NBIEFsZWtzYWRuZXIgRHJ3
YWwwHhcNMjQwNDI0MTUyMTQwWhcNMjUwNDI0MTUyMTQwWjBiMQswCQYDVQQGEwJQ
TDEUMBIGA1UECBMLbWF6b3dpZWNraWUxCzAJBgNVBAoTAlBXMSAwHgYDVQQDExdT
RVJWRVIgQWxla3NhbmRlciBEcndhbDEOMAwGA1UECxMFV0VpVEkwggEiMA0GCSqG
SIb3DQEBAQUAA4IBDwAwggEKAoIBAQC2GWp7Swtso2ZnT65LHn2SGomBT+vZZwj/
5jcDL/l2DxFhuCOg/SwInNYs2K8/7wnioptj/ZrNuowx7r+WoFqr1BElW670VSSz
fZjOo8DeZ5lTHFBqJgIlmGhY0iNQcTWwMQosodnbn9/l6Z06nwTSmSaCZnbzeoQs
6jI0T6HSux6SP5n1cVVXgRGA6XCzBHTiWFn55ns60I95s3MuUEqWJBp1X5NSobln
EBdIHmCTtAj9ue0SnHGdAIwBkJD/J/Cur/LgwLGEhvuMyv9xVP0d6wdJazsFdiTy
ZJThcUgpgYWhrLo6eNeMrgKEaeGCjrntiBQMkktuuh3ABm3llyqtAgMBAAGjggEN
MIIBCTAJBgNVHRMEAjAAMCwGCWCGSAGG+EIBDQQfFh1UZXN0b3dlIENBIHogbGFi
b3JhdG9yaXVtIEJTUzAdBgNVHQ4EFgQUkkQG5LBODlLRfhvyupLBjIpKRowwga4G
A1UdIwSBpjCBo4AUpopI3x/nXz7qqkoJXi7SShaflJWhdaRzMHExCzAJBgNVBAYT
AlBMMRQwEgYDVQQIEwttYXpvd2llY2tpZTERMA8GA1UEBxMIV2Fyc3phd2ExCzAJ
BgNVBAoTAlBXMQ4wDAYDVQQLEwVXRWlUSTEcMBoGA1UEAxMTQ0EgQWxla3NhZG5l
ciBEcndhbIIUBEPY8a+nkIcbgrosxowx+C2ee5gwDQYJKoZIhvcNAQELBQADggIB
AHdf7352kYwLbJG9DE9c91yb91ZiyTqbfG8ccyztdEGN9Surm5DmV+32hFxBg8ep
+oshkqVsddug7uXN6uq9my0BJ/5RiNT8Vb/FgIgmnolbj0OlbnbcH2xg6vLE3srs
ZoheSseD4p4Mob4ewiFupARMhdxSxOe883tHy19ePe7MbZUEatU/T6G/YINY6S1C
fhqD410IiRdtqazgvUhKwQ+i7HjAzR/rXa7tws9kGJWJ5vcQBFclqnH0wqKTYM5k
UoE0C2N3ihPSyNqsDuYLKIJ73BXaI7HUYL4oVG7sTszxmCz7dYcRZfufYu95o3PA
gvzI5bOGZVEpchAsELHySXaRg6s+UM70jfRQJ1ed+/XYhd5hX5Q6JADnLqZ96/dU
A0C7KVKAQ1JKJoAvGMQvS26aycV4aLsn0cEVQuAZacATqipHfPgYXydJ5lnzuS5o
jGRBmBYuosLyXXNLtsJZr/XSkCwp0IpFigpSl1lRL/Pd/3B3vOgge7PlZm7Wd+zo
YKoBxVEqkFfoAM78F6yT4LFLypu2IhjpgSmkZmaamu8Sz6jr+cLoblTiiWvpdKNg
JvNbC5D5kSTu8Wx3BnTNDTg25mctfYCS6YzudO7yGW7R+b2++ehWOmOXhbnbIpg/
aruqk0VwSdynBthbJ7YfLR7JNV5rjuv5CjDxA0BmO7Ef
-----END CERTIFICATE-----
