Certificate:
    Data:
        Version: 3 (0x2)
        Serial Number: 2 (0x2)
        Signature Algorithm: sha256WithRSAEncryption
        Issuer: C=PL, ST=mazowieckie, L=Warszawa, O=PW, OU=WEiTI, CN=CA Aleksadner Drwal
        Validity
            Not Before: Apr 24 15:25:15 2024 GMT
            Not After : Apr 24 15:25:15 2025 GMT
        Subject: C=PL, ST=mazowieckie, O=PW, CN=CLIENT Aleksander Drwal, OU=WEiTI
        Subject Public Key Info:
            Public Key Algorithm: rsaEncryption
                RSA Public-Key: (2048 bit)
                Modulus:
                    00:ca:72:31:dd:7d:ce:50:e5:79:7b:10:92:c5:df:
                    ae:e5:31:82:44:34:6a:cb:b4:57:2f:c3:96:61:60:
                    bc:f6:7a:84:b0:0a:25:95:1c:8f:1c:7a:70:81:f2:
                    4d:11:80:80:8c:f5:76:34:f5:ff:8f:fd:52:8f:eb:
                    f3:ee:19:c8:57:0f:04:cc:50:6d:d1:d0:08:3c:2d:
                    0e:99:ee:1a:0f:9b:36:cb:4f:0d:df:52:1d:cf:89:
                    c1:44:8f:07:62:b4:20:4a:88:b5:d0:ac:b1:dc:d4:
                    3e:3c:22:fc:49:28:56:58:a7:cb:82:bb:e7:38:98:
                    7a:1f:90:8a:40:34:e0:71:9a:cc:84:86:a7:5c:cd:
                    d4:6d:6c:de:4c:d5:8a:ad:de:9a:30:86:26:bd:68:
                    88:b9:60:e6:d7:9c:00:7f:47:4f:32:50:16:0c:5b:
                    fd:50:d5:7c:97:ba:93:44:b3:27:0e:cd:02:16:33:
                    98:4b:c4:75:68:ad:ba:7c:bc:7e:e9:4e:02:3a:61:
                    3f:48:30:0a:71:b5:81:d6:42:c4:9a:55:0b:21:43:
                    f9:87:3a:c9:dd:51:c2:b6:58:e5:18:cb:15:b4:77:
                    d9:24:83:8d:18:d5:2e:98:c4:b6:98:ef:37:79:44:
                    59:d3:d7:b8:c4:25:67:60:6e:32:fc:64:78:bd:d3:
                    30:77
                Exponent: 65537 (0x10001)
        X509v3 extensions:
            X509v3 Basic Constraints: 
                CA:FALSE
            Netscape Comment: 
                Testowe CA z laboratorium BSS
            X509v3 Subject Key Identifier: 
                D1:69:17:81:91:71:94:21:D5:48:70:AF:4F:C1:7D:0C:A4:45:CE:18
            X509v3 Authority Key Identifier: 
                keyid:A6:8A:48:DF:1F:E7:5F:3E:EA:AA:4A:09:5E:2E:D2:4A:16:9F:94:95
                DirName:/C=PL/ST=mazowieckie/L=Warszawa/O=PW/OU=WEiTI/CN=CA Aleksadner Drwal
                serial:04:43:D8:F1:AF:A7:90:87:1B:82:BA:2C:C6:8C:31:F8:2D:9E:7B:98

    Signature Algorithm: sha256WithRSAEncryption
         9b:24:f1:29:f3:42:ed:8b:05:1f:de:9b:7b:32:29:d3:5f:9f:
         90:75:75:8f:a0:4e:dd:20:c8:dd:36:89:82:ad:27:94:91:0e:
         4b:2e:69:70:af:b4:0e:ae:bb:27:b8:66:4a:26:93:20:35:e2:
         aa:d5:cc:6e:c8:55:a0:e6:5d:4a:39:b3:ec:af:89:e1:cb:1f:
         32:16:1f:14:e6:f3:a4:00:33:f7:27:f3:83:d3:c6:80:c1:48:
         58:68:9c:b9:7f:53:f0:20:ab:67:61:1e:ad:9d:ea:47:33:61:
         a5:ad:a2:5f:8e:9e:bf:43:a7:e9:5b:78:f8:f4:f7:6a:d7:f2:
         47:62:17:37:50:2b:31:bc:15:ee:7c:88:54:45:fc:d0:46:98:
         5c:5a:3d:95:09:56:df:1f:63:36:32:ef:7b:da:d6:cd:5a:71:
         f2:fb:98:8b:95:34:54:62:88:37:06:77:89:36:54:ca:4a:1f:
         d5:07:12:c3:0d:8b:e0:31:9c:65:75:b5:af:ef:59:fe:08:da:
         11:5b:03:65:ab:e7:ae:bf:f7:5e:25:45:46:db:cd:8e:13:84:
         1d:b8:ef:30:b3:fb:f3:4c:c4:ed:16:b7:04:08:de:5f:46:5d:
         e2:1e:a0:cc:c1:0f:c6:51:40:85:d1:80:ce:eb:44:d1:e8:92:
         81:15:15:c8:75:c1:cf:3c:34:f3:d4:a0:0b:ba:b9:4e:95:5a:
         14:9b:19:91:f8:b7:33:ea:85:06:71:75:f1:03:d6:4f:d0:27:
         cd:0f:cb:c0:ec:d4:af:ae:96:fd:7a:b9:da:71:6f:86:c8:ed:
         5e:f5:72:86:53:8a:cc:61:e8:de:0f:22:08:1c:4d:ea:cf:93:
         dc:5d:23:0e:92:88:ff:9d:0e:38:fc:05:e8:b3:8f:4b:99:38:
         6c:2a:26:b7:13:ff:92:31:c8:2c:25:6f:fc:2b:db:b7:ac:15:
         43:cf:2f:ce:ef:33:6d:5a:2f:f7:01:b4:c3:cf:00:5a:31:71:
         f5:b2:c1:6c:b1:cb:a6:fd:1c:cc:3d:f8:6f:68:20:2e:22:43:
         ef:fe:3c:ef:1a:1b:fb:f4:94:ca:cd:37:6c:e7:8b:2c:d5:03:
         9c:7b:d9:4a:c6:4c:5e:24:09:ba:9c:43:67:49:cb:71:ad:a4:
         bf:46:57:38:a5:dd:89:a6:ae:be:bf:04:ac:45:eb:c8:fb:00:
         2b:b2:e9:d6:51:73:ca:45:88:40:4f:17:75:cd:8d:fd:05:f7:
         ca:3a:01:46:42:02:65:af:24:cf:a0:e7:f8:f7:08:d9:d5:f0:
         a6:65:51:43:60:9a:69:70:25:0f:6f:3e:96:36:bf:a0:43:19:
         39:77:3e:26:e2:3e:04:11
-----BEGIN CERTIFICATE-----
MIIFXTCCA0WgAwIBAgIBAjANBgkqhkiG9w0BAQsFADBxMQswCQYDVQQGEwJQTDEU
MBIGA1UECBMLbWF6b3dpZWNraWUxETAPBgNVBAcTCFdhcnN6YXdhMQswCQYDVQQK
EwJQVzEOMAwGA1UECxMFV0VpVEkxHDAaBgNVBAMTE0NBIEFsZWtzYWRuZXIgRHJ3
YWwwHhcNMjQwNDI0MTUyNTE1WhcNMjUwNDI0MTUyNTE1WjBiMQswCQYDVQQGEwJQ
TDEUMBIGA1UECBMLbWF6b3dpZWNraWUxCzAJBgNVBAoTAlBXMSAwHgYDVQQDExdD
TElFTlQgQWxla3NhbmRlciBEcndhbDEOMAwGA1UECxMFV0VpVEkwggEiMA0GCSqG
SIb3DQEBAQUAA4IBDwAwggEKAoIBAQDKcjHdfc5Q5Xl7EJLF367lMYJENGrLtFcv
w5ZhYLz2eoSwCiWVHI8cenCB8k0RgICM9XY09f+P/VKP6/PuGchXDwTMUG3R0Ag8
LQ6Z7hoPmzbLTw3fUh3PicFEjwditCBKiLXQrLHc1D48IvxJKFZYp8uCu+c4mHof
kIpANOBxmsyEhqdczdRtbN5M1Yqt3powhia9aIi5YObXnAB/R08yUBYMW/1Q1XyX
upNEsycOzQIWM5hLxHVorbp8vH7pTgI6YT9IMApxtYHWQsSaVQshQ/mHOsndUcK2
WOUYyxW0d9kkg40Y1S6YxLaY7zd5RFnT17jEJWdgbjL8ZHi90zB3AgMBAAGjggEN
MIIBCTAJBgNVHRMEAjAAMCwGCWCGSAGG+EIBDQQfFh1UZXN0b3dlIENBIHogbGFi
b3JhdG9yaXVtIEJTUzAdBgNVHQ4EFgQU0WkXgZFxlCHVSHCvT8F9DKRFzhgwga4G
A1UdIwSBpjCBo4AUpopI3x/nXz7qqkoJXi7SShaflJWhdaRzMHExCzAJBgNVBAYT
AlBMMRQwEgYDVQQIEwttYXpvd2llY2tpZTERMA8GA1UEBxMIV2Fyc3phd2ExCzAJ
BgNVBAoTAlBXMQ4wDAYDVQQLEwVXRWlUSTEcMBoGA1UEAxMTQ0EgQWxla3NhZG5l
ciBEcndhbIIUBEPY8a+nkIcbgrosxowx+C2ee5gwDQYJKoZIhvcNAQELBQADggIB
AJsk8SnzQu2LBR/em3syKdNfn5B1dY+gTt0gyN02iYKtJ5SRDksuaXCvtA6uuye4
ZkomkyA14qrVzG7IVaDmXUo5s+yvieHLHzIWHxTm86QAM/cn84PTxoDBSFhonLl/
U/Agq2dhHq2d6kczYaWtol+Onr9Dp+lbePj092rX8kdiFzdQKzG8Fe58iFRF/NBG
mFxaPZUJVt8fYzYy73va1s1acfL7mIuVNFRiiDcGd4k2VMpKH9UHEsMNi+AxnGV1
ta/vWf4I2hFbA2Wr566/914lRUbbzY4ThB247zCz+/NMxO0WtwQI3l9GXeIeoMzB
D8ZRQIXRgM7rRNHokoEVFch1wc88NPPUoAu6uU6VWhSbGZH4tzPqhQZxdfED1k/Q
J80Py8Ds1K+ulv16udpxb4bI7V71coZTisxh6N4PIggcTerPk9xdIw6SiP+dDjj8
Beizj0uZOGwqJrcT/5IxyCwlb/wr27esFUPPL87vM21aL/cBtMPPAFoxcfWywWyx
y6b9HMw9+G9oIC4iQ+/+PO8aG/v0lMrNN2zniyzVA5x72UrGTF4kCbqcQ2dJy3Gt
pL9GVzil3Ymmrr6/BKxF68j7ACuy6dZRc8pFiEBPF3XNjf0F98o6AUZCAmWvJM+g
5/j3CNnV8KZlUUNgmmlwJQ9vPpY2v6BDGTl3PibiPgQR
-----END CERTIFICATE-----
