Certificate:
    Data:
        Version: 3 (0x2)
        Serial Number: 3 (0x3)
        Signature Algorithm: sha256WithRSAEncryption
        Issuer: C=PL, ST=mazowieckie, L=Warszawa, O=PW, OU=WEiTI, CN=CA Aleksadner Drwal
        Validity
            Not Before: Apr 24 15:29:58 2024 GMT
            Not After : Apr 24 15:29:58 2025 GMT
        Subject: C=PL, ST=mazowieckie, O=PW, CN=CLIENT Jed Grabski, OU=WEiTI
        Subject Public Key Info:
            Public Key Algorithm: rsaEncryption
                RSA Public-Key: (2048 bit)
                Modulus:
                    00:f1:be:a6:21:4c:bc:de:61:66:70:4f:1d:00:e4:
                    90:68:bd:ec:06:a3:a1:a7:8d:c2:dd:e9:9a:e6:90:
                    05:be:da:37:9b:e6:2d:4f:11:1a:54:32:a3:c9:11:
                    68:1c:fa:bc:94:f5:79:a2:a5:23:c6:9d:5f:e8:fa:
                    3e:cb:59:3f:93:fe:c5:46:f6:b6:4d:81:c0:4c:b3:
                    4e:71:64:f6:24:2b:20:3c:cb:2a:c9:f2:1e:09:37:
                    de:fd:d9:cd:69:c3:8a:69:97:05:e9:de:22:41:06:
                    9a:cc:5f:4a:dd:66:21:1a:c5:ac:7a:6d:80:b0:44:
                    67:5b:2d:8e:51:e1:63:91:35:b6:87:df:5e:3f:b5:
                    ce:cd:34:d4:bb:73:4a:38:22:f8:9d:b7:60:9b:35:
                    bf:b8:3a:b9:a7:5e:8b:ba:69:92:ae:c5:ef:07:e9:
                    b5:4c:b4:86:11:fe:cd:d8:c8:65:3b:4f:d4:2f:5e:
                    91:5e:b8:71:ba:f0:36:95:ad:b5:08:c3:c4:59:e5:
                    0c:cc:04:d5:5b:cd:6d:e1:aa:69:f3:5e:13:97:4c:
                    87:24:1d:cf:a9:b8:07:89:83:71:58:18:ef:a9:5c:
                    c5:64:cf:46:5f:ea:36:ce:e1:37:4e:cf:09:2e:23:
                    76:0f:4d:bf:a3:3f:c3:76:2d:bc:24:cc:e1:18:3e:
                    ea:41
                Exponent: 65537 (0x10001)
        X509v3 extensions:
            X509v3 Basic Constraints: 
                CA:FALSE
            Netscape Comment: 
                Testowe CA z laboratorium BSS
            X509v3 Subject Key Identifier: 
                69:66:68:9C:15:48:EB:49:EA:63:69:01:EA:66:45:F6:5C:DA:71:0E
            X509v3 Authority Key Identifier: 
                keyid:A6:8A:48:DF:1F:E7:5F:3E:EA:AA:4A:09:5E:2E:D2:4A:16:9F:94:95
                DirName:/C=PL/ST=mazowieckie/L=Warszawa/O=PW/OU=WEiTI/CN=CA Aleksadner Drwal
                serial:04:43:D8:F1:AF:A7:90:87:1B:82:BA:2C:C6:8C:31:F8:2D:9E:7B:98

    Signature Algorithm: sha256WithRSAEncryption
         1a:a7:f0:fa:b0:65:23:b0:b6:2a:92:36:f3:79:e5:62:92:e5:
         ad:c0:e6:66:e1:68:08:13:27:31:27:a5:99:37:b8:f9:72:41:
         4d:4c:7a:7c:88:6a:d0:81:fc:4d:f8:06:c6:15:db:04:98:ac:
         95:e2:be:68:28:c0:c7:75:3a:25:0c:90:73:4b:b9:d8:d9:d5:
         89:1b:19:fc:92:fe:fb:4d:6f:41:32:08:da:ad:27:4f:4e:eb:
         72:92:f9:43:87:31:0d:75:6a:2e:87:3f:ee:41:bf:11:49:52:
         03:30:bc:c4:a5:f7:65:1d:3f:5d:18:2a:a2:ae:5e:eb:15:a4:
         3e:3c:cb:73:d2:95:7b:31:bd:57:69:b0:f7:a8:c0:bd:db:51:
         d8:ec:d5:25:ff:5c:71:36:b3:f1:ab:3f:2f:4f:ef:5d:60:1e:
         34:41:72:f4:94:bc:ce:35:26:3a:41:cf:b3:c5:84:f0:29:37:
         e3:e2:a2:2e:c8:5c:73:e5:f8:86:14:a9:e1:70:55:09:93:a9:
         cd:a9:25:b7:1f:bc:4a:c7:6e:25:fb:0f:63:97:89:30:a0:36:
         95:89:08:6e:14:7e:98:ba:b2:47:ab:c5:56:e2:71:30:03:3a:
         ca:b5:55:96:ee:e8:59:c1:d3:cd:bd:48:30:04:65:bc:99:d8:
         f6:c1:ed:b8:ff:c5:46:cf:eb:c0:64:e0:85:fb:bd:3f:f3:5b:
         c5:e5:a4:b2:42:74:f4:f3:be:46:c0:6b:00:7f:f8:05:ca:55:
         f0:f5:0b:b5:88:7f:ce:18:54:1d:d3:84:d2:15:57:63:c8:6e:
         88:fa:0f:d2:06:8d:3b:84:9d:f7:d5:59:e4:c5:85:0d:f8:ef:
         d7:4d:f1:df:59:b4:b8:cd:55:09:ff:68:ac:38:54:41:fb:98:
         d2:08:eb:e8:5b:c7:66:e2:38:61:d1:bc:5f:44:d6:64:03:d9:
         56:3b:49:6a:87:8d:5b:4d:2d:2b:b8:1e:72:9e:53:e4:1d:20:
         da:67:23:4d:66:2b:48:47:6b:ee:a7:64:fa:a5:b1:17:89:ee:
         6f:cb:bd:d2:bc:b2:cf:e9:ee:66:80:ca:9a:cd:a0:f0:89:18:
         6e:f3:52:27:95:52:c4:e4:f9:e9:57:f5:39:da:d6:22:ff:41:
         f9:83:7e:41:79:8c:3c:4d:5e:6f:41:05:44:27:2b:a4:a8:4e:
         06:1a:d5:b1:24:f7:f1:d6:89:be:20:2b:0f:ff:c6:0e:2d:0d:
         ed:34:c0:bc:bf:0c:38:1d:9a:fe:02:10:5b:8b:c2:3c:36:a6:
         ef:3b:13:28:31:6f:70:f2:c4:b6:fc:78:8f:e4:b7:7d:ce:e2:
         42:3b:29:c0:7c:61:02:f8
-----BEGIN CERTIFICATE-----
MIIFWDCCA0CgAwIBAgIBAzANBgkqhkiG9w0BAQsFADBxMQswCQYDVQQGEwJQTDEU
MBIGA1UECBMLbWF6b3dpZWNraWUxETAPBgNVBAcTCFdhcnN6YXdhMQswCQYDVQQK
EwJQVzEOMAwGA1UECxMFV0VpVEkxHDAaBgNVBAMTE0NBIEFsZWtzYWRuZXIgRHJ3
YWwwHhcNMjQwNDI0MTUyOTU4WhcNMjUwNDI0MTUyOTU4WjBdMQswCQYDVQQGEwJQ
TDEUMBIGA1UECBMLbWF6b3dpZWNraWUxCzAJBgNVBAoTAlBXMRswGQYDVQQDExJD
TElFTlQgSmVkIEdyYWJza2kxDjAMBgNVBAsTBVdFaVRJMIIBIjANBgkqhkiG9w0B
AQEFAAOCAQ8AMIIBCgKCAQEA8b6mIUy83mFmcE8dAOSQaL3sBqOhp43C3ema5pAF
vto3m+YtTxEaVDKjyRFoHPq8lPV5oqUjxp1f6Po+y1k/k/7FRva2TYHATLNOcWT2
JCsgPMsqyfIeCTfe/dnNacOKaZcF6d4iQQaazF9K3WYhGsWsem2AsERnWy2OUeFj
kTW2h99eP7XOzTTUu3NKOCL4nbdgmzW/uDq5p16LummSrsXvB+m1TLSGEf7N2Mhl
O0/UL16RXrhxuvA2la21CMPEWeUMzATVW81t4app814Tl0yHJB3PqbgHiYNxWBjv
qVzFZM9GX+o2zuE3Ts8JLiN2D02/oz/Ddi28JMzhGD7qQQIDAQABo4IBDTCCAQkw
CQYDVR0TBAIwADAsBglghkgBhvhCAQ0EHxYdVGVzdG93ZSBDQSB6IGxhYm9yYXRv
cml1bSBCU1MwHQYDVR0OBBYEFGlmaJwVSOtJ6mNpAepmRfZc2nEOMIGuBgNVHSME
gaYwgaOAFKaKSN8f518+6qpKCV4u0koWn5SVoXWkczBxMQswCQYDVQQGEwJQTDEU
MBIGA1UECBMLbWF6b3dpZWNraWUxETAPBgNVBAcTCFdhcnN6YXdhMQswCQYDVQQK
EwJQVzEOMAwGA1UECxMFV0VpVEkxHDAaBgNVBAMTE0NBIEFsZWtzYWRuZXIgRHJ3
YWyCFARD2PGvp5CHG4K6LMaMMfgtnnuYMA0GCSqGSIb3DQEBCwUAA4ICAQAap/D6
sGUjsLYqkjbzeeVikuWtwOZm4WgIEycxJ6WZN7j5ckFNTHp8iGrQgfxN+AbGFdsE
mKyV4r5oKMDHdTolDJBzS7nY2dWJGxn8kv77TW9BMgjarSdPTutykvlDhzENdWou
hz/uQb8RSVIDMLzEpfdlHT9dGCqirl7rFaQ+PMtz0pV7Mb1XabD3qMC921HY7NUl
/1xxNrPxqz8vT+9dYB40QXL0lLzONSY6Qc+zxYTwKTfj4qIuyFxz5fiGFKnhcFUJ
k6nNqSW3H7xKx24l+w9jl4kwoDaViQhuFH6YurJHq8VW4nEwAzrKtVWW7uhZwdPN
vUgwBGW8mdj2we24/8VGz+vAZOCF+70/81vF5aSyQnT0875GwGsAf/gFylXw9Qu1
iH/OGFQd04TSFVdjyG6I+g/SBo07hJ331VnkxYUN+O/XTfHfWbS4zVUJ/2isOFRB
+5jSCOvoW8dm4jhh0bxfRNZkA9lWO0lqh41bTS0ruB5ynlPkHSDaZyNNZitIR2vu
p2T6pbEXie5vy73SvLLP6e5mgMqazaDwiRhu81InlVLE5PnpV/U52tYi/0H5g35B
eYw8TV5vQQVEJyukqE4GGtWxJPfx1om+ICsP/8YOLQ3tNMC8vww4HZr+AhBbi8I8
NqbvOxMoMW9w8sS2/HiP5Ld9zuJCOynAfGEC+A==
-----END CERTIFICATE-----
